target datalayout = "e-m:e-p270:32:32-p271:32:32-p272:64:64-i64:64-i128:128-f80:128-n8:16:32:64-S128"
target triple = "x86_64-pc-linux-gnu"

%struct._zval_struct = type { %union._zend_value, %union.anon.3, %union.anon.6 }
%union._zend_value = type { i64 }
%union.anon.3 = type { i32 }
%union.anon.6 = type { i32 }
%struct._php_stream_filter_chain = type { ptr, ptr, ptr }
%struct._php_stream_bucket_brigade = type { ptr, ptr }
%struct._php_stream_filter = type { ptr, %struct._zval_struct, ptr, ptr, i32, ptr, %struct._php_stream_bucket_brigade, ptr }

; Function Attrs: nounwind uwtable
define void @_php_stream_filter_append(ptr noundef %0, ptr noundef %1) #0 {
  %3 = alloca ptr, align 8
  %4 = alloca ptr, align 8
  store ptr %0, ptr %3, align 8
  store ptr %1, ptr %4, align 8
  %5 = load ptr, ptr %3, align 8
  %6 = load ptr, ptr %4, align 8
  %7 = call i32 @php_stream_filter_append_ex(ptr noundef %5, ptr noundef %6)
  %8 = icmp ne i32 %7, 0
  br i1 %8, label %9, label %31

9:                                                ; preds = %2
  %10 = load ptr, ptr %3, align 8
  %11 = getelementptr inbounds %struct._php_stream_filter_chain, ptr %10, i32 0, i32 0
  %12 = load ptr, ptr %11, align 8
  %13 = load ptr, ptr %4, align 8
  %14 = icmp eq ptr %12, %13
  br i1 %14, label %15, label %20

15:                                               ; preds = %9
  %16 = load ptr, ptr %3, align 8
  %17 = getelementptr inbounds %struct._php_stream_filter_chain, ptr %16, i32 0, i32 0
  store ptr null, ptr %17, align 8
  %18 = load ptr, ptr %3, align 8
  %19 = getelementptr inbounds %struct._php_stream_filter_chain, ptr %18, i32 0, i32 1
  store ptr null, ptr %19, align 8
  br label %30

20:                                               ; preds = %9
  %21 = load ptr, ptr %4, align 8
  %22 = getelementptr inbounds %struct._php_stream_filter, ptr %21, i32 0, i32 3
  %23 = load ptr, ptr %22, align 8
  %24 = getelementptr inbounds %struct._php_stream_filter, ptr %23, i32 0, i32 2
  store ptr null, ptr %24, align 8
  %25 = load ptr, ptr %4, align 8
  %26 = getelementptr inbounds %struct._php_stream_filter, ptr %25, i32 0, i32 3
  %27 = load ptr, ptr %26, align 8
  %28 = load ptr, ptr %3, align 8
  %29 = getelementptr inbounds %struct._php_stream_filter_chain, ptr %28, i32 0, i32 1
  store ptr %27, ptr %29, align 8
  br label %30

30:                                               ; preds = %20, %15
  br label %31

31:                                               ; preds = %30, %2
  ret void
}