; Function Attrs: nounwind uwtable
define void @_php_stream_filter_append(ptr noundef %0, ptr noundef %1) local_unnamed_addr #2 {
  %3 = tail call i32 @php_stream_filter_append_ex(ptr noundef %0, ptr noundef %1), !range !5
  %.not = icmp eq i32 %3, 0
  br i1 %.not, label %14, label %4

4:                                                ; preds = %2
  %5 = load ptr, ptr %0, align 8
  %6 = icmp eq ptr %5, %1
  br i1 %6, label %7, label %8

7:                                                ; preds = %4
  tail call void @llvm.memset.p0.i64(ptr noundef nonnull align 8 dereferenceable(16) %0, i8 0, i64 16, i1 false)
  br label %14

8:                                                ; preds = %4
  %9 = getelementptr inbounds i8, ptr %1, i64 32
  %10 = load ptr, ptr %9, align 8
  %11 = getelementptr inbounds i8, ptr %10, i64 24
  store ptr null, ptr %11, align 8
  %12 = load ptr, ptr %9, align 8
  %13 = getelementptr inbounds i8, ptr %0, i64 8
  store ptr %12, ptr %13, align 8
  br label %14

14:                                               ; preds = %7, %8, %2
  ret void
}